target datalayout = "e-m:e-p270:32:32-p271:32:32-p272:64:64-i64:64-i128:128-f80:128-n8:16:32:64-S128"
target triple = "x86_64-pc-linux-gnu"

%"class.cv::xfeatures2d::DAISY_Impl" = type { %"class.cv::xfeatures2d::DAISY", float, i32, i32, i32, i32, i32, i32, i32, i8, i8, i8, i8, %"class.cv::Mat", %"class.cv::Mat", %"class.cv::Rect_", %"class.std::vector.0", %"class.cv::Mat", %"class.cv::Mat", %"class.cv::Mat", %"class.cv::Mat", %"class.cv::Mat", [360 x double] }
%"class.cv::xfeatures2d::DAISY" = type { %"class.cv::Feature2D" }
%"class.cv::Feature2D" = type { %"class.cv::Algorithm" }
%"class.cv::Algorithm" = type { ptr }
%"class.cv::Rect_" = type { i32, i32, i32, i32 }
%"class.std::vector.0" = type { %"struct.std::_Vector_base.1" }
%"struct.std::_Vector_base.1" = type { %"struct.std::_Vector_base<cv::Mat, std::allocator<cv::Mat>>::_Vector_impl" }
%"struct.std::_Vector_base<cv::Mat, std::allocator<cv::Mat>>::_Vector_impl" = type { %"struct.std::_Vector_base<cv::Mat, std::allocator<cv::Mat>>::_Vector_impl_data" }
%"struct.std::_Vector_base<cv::Mat, std::allocator<cv::Mat>>::_Vector_impl_data" = type { ptr, ptr, ptr }
%"class.cv::Mat" = type { i32, i32, i32, i32, ptr, ptr, ptr, ptr, ptr, ptr, %"struct.cv::MatSize", %"struct.cv::MatStep" }
%"struct.cv::MatSize" = type { ptr }
%"struct.cv::MatStep" = type { ptr, [2 x i64] }

; Function Attrs: mustprogress uwtable
define internal void @_ZN2cv11xfeatures2dL14get_descriptorEddiPfPKSt6vectorINS_3MatESaIS3_EEPKS3_PKdiiiibNS0_5DAISY17NormalizationTypeE(double noundef %0, double noundef %1, i32 noundef %2, ptr noundef %3, ptr noundef %4, ptr noundef %5, ptr noundef %6, i32 noundef %7, i32 noundef %8, i32 noundef %9, i32 noundef %10, i1 noundef zeroext %11, i32 noundef %12) #4 {
  %14 = alloca double, align 8
  %15 = alloca double, align 8
  %16 = alloca i32, align 4
  %17 = alloca ptr, align 8
  %18 = alloca ptr, align 8
  %19 = alloca ptr, align 8
  %20 = alloca ptr, align 8
  %21 = alloca i32, align 4
  %22 = alloca i32, align 4
  %23 = alloca i32, align 4
  %24 = alloca i32, align 4
  %25 = alloca i8, align 1
  %26 = alloca i32, align 4
  store double %0, ptr %14, align 8, !tbaa !7
  store double %1, ptr %15, align 8, !tbaa !7
  store i32 %2, ptr %16, align 4, !tbaa !3
  store ptr %3, ptr %17, align 8, !tbaa !20
  store ptr %4, ptr %18, align 8, !tbaa !50
  store ptr %5, ptr %19, align 8, !tbaa !52
  store ptr %6, ptr %20, align 8, !tbaa !53
  store i32 %7, ptr %21, align 4, !tbaa !3
  store i32 %8, ptr %22, align 4, !tbaa !3
  store i32 %9, ptr %23, align 4, !tbaa !3
  store i32 %10, ptr %24, align 4, !tbaa !3
  %27 = zext i1 %11 to i8
  store i8 %27, ptr %25, align 1, !tbaa !55
  store i32 %12, ptr %26, align 4, !tbaa !56
  %28 = load double, ptr %14, align 8, !tbaa !7
  %29 = load double, ptr %15, align 8, !tbaa !7
  %30 = load i32, ptr %16, align 4, !tbaa !3
  %31 = load ptr, ptr %17, align 8, !tbaa !20
  %32 = load ptr, ptr %18, align 8, !tbaa !50
  %33 = load ptr, ptr %19, align 8, !tbaa !52
  %34 = load ptr, ptr %20, align 8, !tbaa !53
  %35 = load i32, ptr %21, align 4, !tbaa !3
  %36 = load i8, ptr %25, align 1, !tbaa !55, !range !47, !noundef !48
  %37 = trunc i8 %36 to i1
  call void @_ZN2cv11xfeatures2dL27get_unnormalized_descriptorEddiPfPKSt6vectorINS_3MatESaIS3_EEPKS3_PKdib(double noundef %28, double noundef %29, i32 noundef %30, ptr noundef %31, ptr noundef %32, ptr noundef %33, ptr noundef %34, i32 noundef %35, i1 noundef zeroext %37)
  %38 = load ptr, ptr %17, align 8, !tbaa !20
  %39 = load i32, ptr %26, align 4, !tbaa !56
  %40 = load i32, ptr %23, align 4, !tbaa !3
  %41 = load i32, ptr %22, align 4, !tbaa !3
  %42 = load i32, ptr %24, align 4, !tbaa !3
  call void @_ZN2cv11xfeatures2dL20normalize_descriptorEPfNS0_5DAISY17NormalizationTypeEiii(ptr noundef %38, i32 noundef %39, i32 noundef %40, i32 noundef %41, i32 noundef %42)
  ret void
}

; Function Attrs: mustprogress uwtable
define hidden void @_ZNK2cv11xfeatures2d10DAISY_Impl13GetDescriptorEddiPf(ptr noundef nonnull align 8 dereferenceable(3640) %0, double noundef %1, double noundef %2, i32 noundef %3, ptr noundef %4) unnamed_addr #4 align 2 {
  %6 = alloca ptr, align 8
  %7 = alloca double, align 8
  %8 = alloca double, align 8
  %9 = alloca i32, align 4
  %10 = alloca ptr, align 8
  store ptr %0, ptr %6, align 8, !tbaa !18
  store double %1, ptr %7, align 8, !tbaa !7
  store double %2, ptr %8, align 8, !tbaa !7
  store i32 %3, ptr %9, align 4, !tbaa !3
  store ptr %4, ptr %10, align 8, !tbaa !20
  %11 = load ptr, ptr %6, align 8
  %12 = load double, ptr %7, align 8, !tbaa !7
  %13 = load double, ptr %8, align 8, !tbaa !7
  %14 = load i32, ptr %9, align 4, !tbaa !3
  %15 = load ptr, ptr %10, align 8, !tbaa !20
  %16 = getelementptr inbounds nuw %"class.cv::xfeatures2d::DAISY_Impl", ptr %11, i32 0, i32 16
  %17 = getelementptr inbounds nuw %"class.cv::xfeatures2d::DAISY_Impl", ptr %11, i32 0, i32 19
  %18 = getelementptr inbounds nuw %"class.cv::xfeatures2d::DAISY_Impl", ptr %11, i32 0, i32 22
  %19 = getelementptr inbounds [360 x double], ptr %18, i64 0, i64 0
  %20 = getelementptr inbounds nuw %"class.cv::xfeatures2d::DAISY_Impl", ptr %11, i32 0, i32 3
  %21 = load i32, ptr %20, align 8, !tbaa !22
  %22 = getelementptr inbounds nuw %"class.cv::xfeatures2d::DAISY_Impl", ptr %11, i32 0, i32 4
  %23 = load i32, ptr %22, align 4, !tbaa !43
  %24 = getelementptr inbounds nuw %"class.cv::xfeatures2d::DAISY_Impl", ptr %11, i32 0, i32 7
  %25 = load i32, ptr %24, align 8, !tbaa !44
  %26 = getelementptr inbounds nuw %"class.cv::xfeatures2d::DAISY_Impl", ptr %11, i32 0, i32 6
  %27 = load i32, ptr %26, align 4, !tbaa !45
  %28 = getelementptr inbounds nuw %"class.cv::xfeatures2d::DAISY_Impl", ptr %11, i32 0, i32 11
  %29 = load i8, ptr %28, align 2, !tbaa !46, !range !47, !noundef !48
  %30 = trunc i8 %29 to i1
  %31 = getelementptr inbounds nuw %"class.cv::xfeatures2d::DAISY_Impl", ptr %11, i32 0, i32 5
  %32 = load i32, ptr %31, align 8, !tbaa !49
  call void @_ZN2cv11xfeatures2dL14get_descriptorEddiPfPKSt6vectorINS_3MatESaIS3_EEPKS3_PKdiiiibNS0_5DAISY17NormalizationTypeE(double noundef %12, double noundef %13, i32 noundef %14, ptr noundef %15, ptr noundef %16, ptr noundef %17, ptr noundef %19, i32 noundef %21, i32 noundef %23, i32 noundef %25, i32 noundef %27, i1 noundef zeroext %30, i32 noundef %32)
  ret void
}