; Function Attrs: mustprogress uwtable
define hidden void @_ZNK2cv11xfeatures2d10DAISY_Impl13GetDescriptorEddiPf(ptr noundef nonnull align 8 dereferenceable(3640) %0, double noundef %1, double noundef %2, i32 noundef %3, ptr noundef %4) unnamed_addr #1 align 2 {
  %6 = getelementptr inbounds nuw i8, ptr %0, i64 256
  %7 = getelementptr inbounds nuw i8, ptr %0, i64 472
  %8 = getelementptr inbounds nuw i8, ptr %0, i64 760
  %9 = getelementptr inbounds nuw i8, ptr %0, i64 16
  %10 = load i32, ptr %9, align 8, !tbaa !3
  %11 = getelementptr inbounds nuw i8, ptr %0, i64 20
  %12 = load i32, ptr %11, align 4, !tbaa !28
  %13 = getelementptr inbounds nuw i8, ptr %0, i64 32
  %14 = load i32, ptr %13, align 8, !tbaa !29
  %15 = getelementptr inbounds nuw i8, ptr %0, i64 28
  %16 = load i32, ptr %15, align 4, !tbaa !30
  %17 = getelementptr inbounds nuw i8, ptr %0, i64 42
  %18 = load i8, ptr %17, align 2, !tbaa !31, !range !32, !noundef !33
  %19 = trunc nuw i8 %18 to i1
  %20 = getelementptr inbounds nuw i8, ptr %0, i64 24
  %21 = load i32, ptr %20, align 8, !tbaa !34
  tail call fastcc void @_ZN2cv11xfeatures2dL27get_unnormalized_descriptorEddiPfPKSt6vectorINS_3MatESaIS3_EEPKS3_PKdib(double noundef %1, double noundef %2, i32 noundef %3, ptr noundef %4, ptr noundef nonnull readonly %6, ptr noundef nonnull %7, ptr noundef nonnull readonly %8, i32 noundef %10, i1 noundef zeroext %19)
  tail call fastcc void @_ZN2cv11xfeatures2dL20normalize_descriptorEPfNS0_5DAISY17NormalizationTypeEiii(ptr noundef %4, i32 noundef %21, i32 noundef %14, i32 noundef %12, i32 noundef %16)
  ret void
}